target datalayout = "e-m:e-p270:32:32-p271:32:32-p272:64:64-i64:64-i128:128-f80:128-n8:16:32:64-S128"
target triple = "x86_64-unknown-linux-gnu"

%"struct.std::atomic.191" = type { %"struct.std::__atomic_base.192" }
%"struct.std::__atomic_base.192" = type { i8 }
%"class.std::basic_string_view" = type { i64, ptr }
%struct.grpc_closure = type { %union.anon.138, ptr, ptr, %union.anon.140 }
%union.anon.138 = type { ptr }
%union.anon.140 = type { i64 }
%struct.grpc_stream_refcount = type { %"class.grpc_core::RefCount", %struct.grpc_closure }
%"class.grpc_core::RefCount" = type { %"struct.std::atomic.162" }
%"struct.std::atomic.162" = type { %"struct.std::__atomic_base.163" }
%"struct.std::__atomic_base.163" = type { i64 }
%"class.grpc_core::IntraActivityWaiter" = type { i16 }
%"class.grpc_core::RefCountedPtr.197" = type { ptr }
%"class.grpc_core::(anonymous namespace)::ConnectedChannelStream" = type <{ %"class.grpc_core::Orphanable", ptr, %"class.grpc_core::RefCountedPtr.182", %struct.grpc_closure, %struct.grpc_stream_refcount, %"class.std::unique_ptr.183", ptr, ptr, %"class.grpc_core::ExternallyObservableLatch", [4 x i8] }>
%"class.grpc_core::Orphanable" = type { ptr }
%"class.grpc_core::RefCountedPtr.182" = type { ptr }
%"class.std::unique_ptr.183" = type { %"struct.std::__uniq_ptr_data.184" }
%"struct.std::__uniq_ptr_data.184" = type { %"class.std::__uniq_ptr_impl.185" }
%"class.std::__uniq_ptr_impl.185" = type { %"class.std::tuple.186" }
%"class.std::tuple.186" = type { %"struct.std::_Tuple_impl.187" }
%"struct.std::_Tuple_impl.187" = type { %"struct.std::_Tuple_impl.188", %"struct.std::_Head_base.190" }
%"struct.std::_Tuple_impl.188" = type { %"struct.std::_Head_base.189" }
%"struct.std::_Head_base.189" = type { %"class.grpc_core::(anonymous namespace)::ConnectedChannelStream::StreamDeleter" }
%"class.grpc_core::(anonymous namespace)::ConnectedChannelStream::StreamDeleter" = type { ptr }
%"struct.std::_Head_base.190" = type { ptr }
%"class.grpc_core::ExternallyObservableLatch" = type { %"struct.std::atomic.191", %"class.grpc_core::IntraActivityWaiter" }
%class.anon.373 = type { %"class.grpc_core::RefCountedPtr.197" }
%"class.grpc_core::Party::ParticipantImpl" = type <{ %"class.grpc_core::Party::Participant", %union.anon.376, i8, [7 x i8] }>
%"class.grpc_core::Party::Participant" = type { ptr, ptr, %"class.std::basic_string_view" }
%union.anon.376 = type { %"class.grpc_core::promise_detail::OncePromiseFactory.377" }
%"class.grpc_core::promise_detail::OncePromiseFactory.377" = type { %class.anon.373 }
%"class.grpc_core::promise_detail::PromiseLike.378" = type { %class.anon.373 }

@.str.26 = private unnamed_addr constant [9 x i8] c"smartptr\00", align 1

; Function Attrs: mustprogress nounwind uwtable
define linkonce_odr noundef zeroext i1 @_ZN9grpc_core8RefCount5UnrefEv(ptr noundef nonnull align 8 dereferenceable(8) %this) #4 comdat align 2 {
entry:
  %this.addr.i = alloca ptr, align 8
  %__i.addr.i = alloca i64, align 8
  %__m.addr.i = alloca i32, align 4
  %.atomictmp.i = alloca i64, align 8
  %atomic-temp.i = alloca i64, align 8
  %this.addr = alloca ptr, align 8
  %prior = alloca i64, align 8
  store ptr %this, ptr %this.addr, align 8
  %this1 = load ptr, ptr %this.addr, align 8
  %value_ = getelementptr inbounds %"class.grpc_core::RefCount", ptr %this1, i32 0, i32 0
  store ptr %value_, ptr %this.addr.i, align 8
  store i64 1, ptr %__i.addr.i, align 8
  store i32 4, ptr %__m.addr.i, align 4
  %this1.i = load ptr, ptr %this.addr.i, align 8
  %0 = load i32, ptr %__m.addr.i, align 4
  %1 = load i64, ptr %__i.addr.i, align 8
  store i64 %1, ptr %.atomictmp.i, align 8
  switch i32 %0, label %monotonic.i [
    i32 1, label %acquire.i
    i32 2, label %acquire.i
    i32 3, label %release.i
    i32 4, label %acqrel.i
    i32 5, label %seqcst.i
  ]

monotonic.i:                                      ; preds = %entry
  %2 = load i64, ptr %.atomictmp.i, align 8
  %3 = atomicrmw sub ptr %this1.i, i64 %2 monotonic, align 8
  store i64 %3, ptr %atomic-temp.i, align 8
  br label %_ZNSt13__atomic_baseIlE9fetch_subElSt12memory_order.exit

acquire.i:                                        ; preds = %entry, %entry
  %4 = load i64, ptr %.atomictmp.i, align 8
  %5 = atomicrmw sub ptr %this1.i, i64 %4 acquire, align 8
  store i64 %5, ptr %atomic-temp.i, align 8
  br label %_ZNSt13__atomic_baseIlE9fetch_subElSt12memory_order.exit

release.i:                                        ; preds = %entry
  %6 = load i64, ptr %.atomictmp.i, align 8
  %7 = atomicrmw sub ptr %this1.i, i64 %6 release, align 8
  store i64 %7, ptr %atomic-temp.i, align 8
  br label %_ZNSt13__atomic_baseIlE9fetch_subElSt12memory_order.exit

acqrel.i:                                         ; preds = %entry
  %8 = load i64, ptr %.atomictmp.i, align 8
  %9 = atomicrmw sub ptr %this1.i, i64 %8 acq_rel, align 8
  store i64 %9, ptr %atomic-temp.i, align 8
  br label %_ZNSt13__atomic_baseIlE9fetch_subElSt12memory_order.exit

seqcst.i:                                         ; preds = %entry
  %10 = load i64, ptr %.atomictmp.i, align 8
  %11 = atomicrmw sub ptr %this1.i, i64 %10 seq_cst, align 8
  store i64 %11, ptr %atomic-temp.i, align 8
  br label %_ZNSt13__atomic_baseIlE9fetch_subElSt12memory_order.exit

_ZNSt13__atomic_baseIlE9fetch_subElSt12memory_order.exit: ; preds = %seqcst.i, %acqrel.i, %release.i, %acquire.i, %monotonic.i
  %12 = load i64, ptr %atomic-temp.i, align 8
  store i64 %12, ptr %prior, align 8
  %13 = load i64, ptr %prior, align 8
  %cmp = icmp eq i64 %13, 1
  ret i1 %cmp
}

; Function Attrs: mustprogress uwtable
define linkonce_odr void @_Z17grpc_stream_unrefP20grpc_stream_refcount(ptr noundef %refcount) #5 comdat {
entry:
  %refcount.addr = alloca ptr, align 8
  store ptr %refcount, ptr %refcount.addr, align 8
  %0 = load ptr, ptr %refcount.addr, align 8
  %refs = getelementptr inbounds %struct.grpc_stream_refcount, ptr %0, i32 0, i32 0
  %call = call noundef zeroext i1 @_ZN9grpc_core8RefCount5UnrefEv(ptr noundef nonnull align 8 dereferenceable(8) %refs)
  br i1 %call, label %if.then, label %if.end

if.then:                                          ; preds = %entry
  %1 = load ptr, ptr %refcount.addr, align 8
  call void @_Z19grpc_stream_destroyP20grpc_stream_refcount(ptr noundef %1)
  br label %if.end

if.end:                                           ; preds = %if.then, %entry
  ret void
}

; Function Attrs: mustprogress uwtable
define internal void @_ZN9grpc_core12_GLOBAL__N_122ConnectedChannelStream5UnrefEPKc(ptr noundef nonnull align 8 dereferenceable(132) %this, ptr noundef %reason) #5 align 2 {
entry:
  %this.addr = alloca ptr, align 8
  %reason.addr = alloca ptr, align 8
  store ptr %this, ptr %this.addr, align 8
  store ptr %reason, ptr %reason.addr, align 8
  %this1 = load ptr, ptr %this.addr, align 8
  %stream_refcount_ = getelementptr inbounds %"class.grpc_core::(anonymous namespace)::ConnectedChannelStream", ptr %this1, i32 0, i32 4
  call void @_Z17grpc_stream_unrefP20grpc_stream_refcount(ptr noundef %stream_refcount_)
  ret void
}

; Function Attrs: mustprogress nounwind uwtable
define internal void @_ZN9grpc_core13RefCountedPtrINS_12_GLOBAL__N_122ConnectedChannelStreamEED2Ev(ptr noundef nonnull align 8 dereferenceable(8) %this) unnamed_addr #4 align 2 personality ptr @__gxx_personality_v0 {
entry:
  %this.addr = alloca ptr, align 8
  store ptr %this, ptr %this.addr, align 8
  %this1 = load ptr, ptr %this.addr, align 8
  %value_ = getelementptr inbounds %"class.grpc_core::RefCountedPtr.197", ptr %this1, i32 0, i32 0
  %0 = load ptr, ptr %value_, align 8
  %cmp = icmp ne ptr %0, null
  br i1 %cmp, label %if.then, label %if.end

if.then:                                          ; preds = %entry
  %value_2 = getelementptr inbounds %"class.grpc_core::RefCountedPtr.197", ptr %this1, i32 0, i32 0
  %1 = load ptr, ptr %value_2, align 8
  invoke void @_ZN9grpc_core12_GLOBAL__N_122ConnectedChannelStream5UnrefEPKc(ptr noundef nonnull align 8 dereferenceable(132) %1, ptr noundef @.str.26)
          to label %invoke.cont unwind label %terminate.lpad

invoke.cont:                                      ; preds = %if.then
  br label %if.end

if.end:                                           ; preds = %invoke.cont, %entry
  ret void

terminate.lpad:                                   ; preds = %if.then
  %2 = landingpad { ptr, i32 }
          catch ptr null
  %3 = extractvalue { ptr, i32 } %2, 0
  call void @__clang_call_terminate(ptr %3) #16
  unreachable
}

; Function Attrs: mustprogress nounwind uwtable
define internal void @_ZZN9grpc_core12_GLOBAL__N_122ConnectedChannelStream6OrphanEvENUlvE_D2Ev(ptr noundef nonnull align 8 dereferenceable(8) %this) unnamed_addr #4 align 2 {
entry:
  %this.addr = alloca ptr, align 8
  store ptr %this, ptr %this.addr, align 8
  %this1 = load ptr, ptr %this.addr, align 8
  %0 = getelementptr inbounds %class.anon.373, ptr %this1, i32 0, i32 0
  call void @_ZN9grpc_core13RefCountedPtrINS_12_GLOBAL__N_122ConnectedChannelStreamEED2Ev(ptr noundef nonnull align 8 dereferenceable(8) %0) #3
  ret void
}

; Function Attrs: mustprogress nounwind uwtable
define internal void @_ZN9grpc_core14promise_detail11PromiseLikeIZNS_12_GLOBAL__N_122ConnectedChannelStream6OrphanEvEUlvE_vED2Ev(ptr noundef nonnull align 8 dereferenceable(8) %this) unnamed_addr #4 align 2 {
entry:
  %this.addr = alloca ptr, align 8
  store ptr %this, ptr %this.addr, align 8
  %this1 = load ptr, ptr %this.addr, align 8
  %f_ = getelementptr inbounds %"class.grpc_core::promise_detail::PromiseLike.378", ptr %this1, i32 0, i32 0
  call void @_ZZN9grpc_core12_GLOBAL__N_122ConnectedChannelStream6OrphanEvENUlvE_D2Ev(ptr noundef nonnull align 8 dereferenceable(8) %f_) #3
  ret void
}

; Function Attrs: mustprogress nounwind uwtable
define internal void @_ZN9grpc_core14promise_detail18OncePromiseFactoryIvZNS_12_GLOBAL__N_122ConnectedChannelStream6OrphanEvEUlvE_ED2Ev(ptr noundef nonnull align 8 dereferenceable(8) %this) unnamed_addr #4 align 2 {
entry:
  %this.addr = alloca ptr, align 8
  store ptr %this, ptr %this.addr, align 8
  %this1 = load ptr, ptr %this.addr, align 8
  %f_ = getelementptr inbounds %"class.grpc_core::promise_detail::OncePromiseFactory.377", ptr %this1, i32 0, i32 0
  call void @_ZZN9grpc_core12_GLOBAL__N_122ConnectedChannelStream6OrphanEvENUlvE_D2Ev(ptr noundef nonnull align 8 dereferenceable(8) %f_) #3
  ret void
}

; Function Attrs: mustprogress nounwind uwtable
define internal void @_ZN9grpc_core8DestructINS_14promise_detail11PromiseLikeIZNS_12_GLOBAL__N_122ConnectedChannelStream6OrphanEvEUlvE_vEEEEvPT_(ptr noundef %p) #4 {
entry:
  %p.addr = alloca ptr, align 8
  store ptr %p, ptr %p.addr, align 8
  %0 = load ptr, ptr %p.addr, align 8
  call void @_ZN9grpc_core14promise_detail11PromiseLikeIZNS_12_GLOBAL__N_122ConnectedChannelStream6OrphanEvEUlvE_vED2Ev(ptr noundef nonnull align 8 dereferenceable(8) %0) #3
  ret void
}

; Function Attrs: mustprogress nounwind uwtable
define internal void @_ZN9grpc_core8DestructINS_14promise_detail18OncePromiseFactoryIvZNS_12_GLOBAL__N_122ConnectedChannelStream6OrphanEvEUlvE_EEEEvPT_(ptr noundef %p) #4 {
entry:
  %p.addr = alloca ptr, align 8
  store ptr %p, ptr %p.addr, align 8
  %0 = load ptr, ptr %p.addr, align 8
  call void @_ZN9grpc_core14promise_detail18OncePromiseFactoryIvZNS_12_GLOBAL__N_122ConnectedChannelStream6OrphanEvEUlvE_ED2Ev(ptr noundef nonnull align 8 dereferenceable(8) %0) #3
  ret void
}

; Function Attrs: mustprogress nounwind uwtable
define internal void @_ZN9grpc_core5Party15ParticipantImplIZNS_12_GLOBAL__N_122ConnectedChannelStream6OrphanEvEUlvE_ZNS3_6OrphanEvEUlNS_5EmptyEE_ED2Ev(ptr noundef nonnull align 8 dereferenceable(48) %this) unnamed_addr #4 align 2 personality ptr @__gxx_personality_v0 {
entry:
  %this.addr = alloca ptr, align 8
  store ptr %this, ptr %this.addr, align 8
  %this1 = load ptr, ptr %this.addr, align 8
  %started_ = getelementptr inbounds %"class.grpc_core::Party::ParticipantImpl", ptr %this1, i32 0, i32 2
  %0 = load i8, ptr %started_, align 8
  %tobool = trunc i8 %0 to i1
  br i1 %tobool, label %if.else, label %if.then

if.then:                                          ; preds = %entry
  %1 = getelementptr inbounds %"class.grpc_core::Party::ParticipantImpl", ptr %this1, i32 0, i32 1
  call void @_ZN9grpc_core8DestructINS_14promise_detail18OncePromiseFactoryIvZNS_12_GLOBAL__N_122ConnectedChannelStream6OrphanEvEUlvE_EEEEvPT_(ptr noundef %1)
  br label %if.end

if.else:                                          ; preds = %entry
  %2 = getelementptr inbounds %"class.grpc_core::Party::ParticipantImpl", ptr %this1, i32 0, i32 1
  invoke void @_ZN9grpc_core8DestructINS_14promise_detail11PromiseLikeIZNS_12_GLOBAL__N_122ConnectedChannelStream6OrphanEvEUlvE_vEEEEvPT_(ptr noundef %2)
          to label %invoke.cont unwind label %terminate.lpad

invoke.cont:                                      ; preds = %if.else
  br label %if.end

if.end:                                           ; preds = %invoke.cont, %if.then
  call void @_ZN9grpc_core5Party11ParticipantD2Ev(ptr noundef nonnull align 8 dereferenceable(32) %this1) #3
  ret void

terminate.lpad:                                   ; preds = %if.else
  %3 = landingpad { ptr, i32 }
          catch ptr null
  %4 = extractvalue { ptr, i32 } %3, 0
  call void @__clang_call_terminate(ptr %4) #16
  unreachable
}

; Function Attrs: mustprogress nounwind uwtable
define internal void @_ZN9grpc_core5Arena12DeletePooledINS_5Party15ParticipantImplIZNS_12_GLOBAL__N_122ConnectedChannelStream6OrphanEvEUlvE_ZNS5_6OrphanEvEUlNS_5EmptyEE_EEEEvPT_(ptr noundef nonnull align 8 dereferenceable(48) %this, ptr noundef %p) #4 align 2 {
entry:
  %this.addr = alloca ptr, align 8
  %p.addr = alloca ptr, align 8
  store ptr %this, ptr %this.addr, align 8
  store ptr %p, ptr %p.addr, align 8
  %0 = load ptr, ptr %p.addr, align 8
  %isnull = icmp eq ptr %0, null
  br i1 %isnull, label %delete.end, label %delete.notnull

delete.notnull:                                   ; preds = %entry
  call void @_ZN9grpc_core5Party15ParticipantImplIZNS_12_GLOBAL__N_122ConnectedChannelStream6OrphanEvEUlvE_ZNS3_6OrphanEvEUlNS_5EmptyEE_ED2Ev(ptr noundef nonnull align 8 dereferenceable(48) %0) #3
  call void @_ZdlPv(ptr noundef %0) #18
  br label %delete.end

delete.end:                                       ; preds = %delete.notnull, %entry
  ret void
}