; Function Attrs: mustprogress nounwind uwtable
define internal fastcc void @_ZN9grpc_core5Arena12DeletePooledINS_5Party15ParticipantImplIZNS_12_GLOBAL__N_122ConnectedChannelStream6OrphanEvEUlvE_ZNS5_6OrphanEvEUlNS_5EmptyEE_EEEEvPT_(ptr noundef %p) unnamed_addr #13 align 2 personality ptr @__gxx_personality_v0 {
entry:
  %isnull = icmp eq ptr %p, null
  br i1 %isnull, label %delete.end, label %delete.notnull

delete.notnull:                                   ; preds = %entry
  %started_.i = getelementptr inbounds i8, ptr %p, i64 40
  %0 = load i8, ptr %started_.i, align 8
  %1 = and i8 %0, 1
  %tobool.not.i = icmp eq i8 %1, 0
  %2 = getelementptr inbounds i8, ptr %p, i64 32
  %.val.i = load ptr, ptr %2, align 8
  %cmp.not.i.i.i.i.i = icmp eq ptr %.val.i, null
  br i1 %tobool.not.i, label %if.then.i, label %if.else.i

if.then.i:                                        ; preds = %delete.notnull
  br i1 %cmp.not.i.i.i.i.i, label %_ZN9grpc_core5Party15ParticipantImplIZNS_12_GLOBAL__N_122ConnectedChannelStream6OrphanEvEUlvE_ZNS3_6OrphanEvEUlNS_5EmptyEE_ED2Ev.exit, label %if.then.i.i.i.i.i

if.then.i.i.i.i.i:                                ; preds = %if.then.i
  %stream_refcount_.i.i.i.i.i.i = getelementptr inbounds i8, ptr %.val.i, i64 56
  %3 = atomicrmw sub ptr %stream_refcount_.i.i.i.i.i.i, i64 1 acq_rel, align 8
  %cmp.i.i.i.i.i.i.i.i = icmp eq i64 %3, 1
  br i1 %cmp.i.i.i.i.i.i.i.i, label %if.then.i.i.i.i.i.i.i, label %_ZN9grpc_core5Party15ParticipantImplIZNS_12_GLOBAL__N_122ConnectedChannelStream6OrphanEvEUlvE_ZNS3_6OrphanEvEUlNS_5EmptyEE_ED2Ev.exit

if.then.i.i.i.i.i.i.i:                            ; preds = %if.then.i.i.i.i.i
  invoke void @_Z19grpc_stream_destroyP20grpc_stream_refcount(ptr noundef nonnull %stream_refcount_.i.i.i.i.i.i)
          to label %_ZN9grpc_core5Party15ParticipantImplIZNS_12_GLOBAL__N_122ConnectedChannelStream6OrphanEvEUlvE_ZNS3_6OrphanEvEUlNS_5EmptyEE_ED2Ev.exit unwind label %terminate.lpad.i.i.i.i.i

terminate.lpad.i.i.i.i.i:                         ; preds = %if.then.i.i.i.i.i.i.i
  %4 = landingpad { ptr, i32 }
          catch ptr null
  %5 = extractvalue { ptr, i32 } %4, 0
  tail call void @__clang_call_terminate(ptr %5) #24
  unreachable

if.else.i:                                        ; preds = %delete.notnull
  br i1 %cmp.not.i.i.i.i.i, label %_ZN9grpc_core5Party15ParticipantImplIZNS_12_GLOBAL__N_122ConnectedChannelStream6OrphanEvEUlvE_ZNS3_6OrphanEvEUlNS_5EmptyEE_ED2Ev.exit, label %if.then.i.i.i.i3.i

if.then.i.i.i.i3.i:                               ; preds = %if.else.i
  %stream_refcount_.i.i.i.i.i4.i = getelementptr inbounds i8, ptr %.val.i, i64 56
  %6 = atomicrmw sub ptr %stream_refcount_.i.i.i.i.i4.i, i64 1 acq_rel, align 8
  %cmp.i.i.i.i.i.i.i5.i = icmp eq i64 %6, 1
  br i1 %cmp.i.i.i.i.i.i.i5.i, label %if.then.i.i.i.i.i.i6.i, label %_ZN9grpc_core5Party15ParticipantImplIZNS_12_GLOBAL__N_122ConnectedChannelStream6OrphanEvEUlvE_ZNS3_6OrphanEvEUlNS_5EmptyEE_ED2Ev.exit

if.then.i.i.i.i.i.i6.i:                           ; preds = %if.then.i.i.i.i3.i
  invoke void @_Z19grpc_stream_destroyP20grpc_stream_refcount(ptr noundef nonnull %stream_refcount_.i.i.i.i.i4.i)
          to label %_ZN9grpc_core5Party15ParticipantImplIZNS_12_GLOBAL__N_122ConnectedChannelStream6OrphanEvEUlvE_ZNS3_6OrphanEvEUlNS_5EmptyEE_ED2Ev.exit unwind label %terminate.lpad.i.i.i.i7.i

terminate.lpad.i.i.i.i7.i:                        ; preds = %if.then.i.i.i.i.i.i6.i
  %7 = landingpad { ptr, i32 }
          catch ptr null
  %8 = extractvalue { ptr, i32 } %7, 0
  tail call void @__clang_call_terminate(ptr %8) #24
  unreachable

_ZN9grpc_core5Party15ParticipantImplIZNS_12_GLOBAL__N_122ConnectedChannelStream6OrphanEvEUlvE_ZNS3_6OrphanEvEUlNS_5EmptyEE_ED2Ev.exit: ; preds = %if.then.i, %if.then.i.i.i.i.i, %if.then.i.i.i.i.i.i.i, %if.else.i, %if.then.i.i.i.i3.i, %if.then.i.i.i.i.i.i6.i
  tail call void @_ZN9grpc_core5Party11ParticipantD2Ev(ptr noundef nonnull align 8 dereferenceable(32) %p) #23
  tail call void @_ZdlPv(ptr noundef nonnull %p) #26
  br label %delete.end

delete.end:                                       ; preds = %_ZN9grpc_core5Party15ParticipantImplIZNS_12_GLOBAL__N_122ConnectedChannelStream6OrphanEvEUlvE_ZNS3_6OrphanEvEUlNS_5EmptyEE_ED2Ev.exit, %entry
  ret void
}